target datalayout = "e-m:e-p270:32:32-p271:32:32-p272:64:64-i64:64-i128:128-f80:128-n8:16:32:64-S128"
target triple = "x86_64-pc-linux-gnu"

%"struct.boost::urls::detail::url_impl" = type <{ ptr, [8 x i64], [7 x i64], i64, i64, [16 x i8], i16, [2 x i8], i32, i16, i8, [5 x i8] }>

; Function Attrs: mustprogress nounwind uwtable
define void @_ZN5boost4urls6detail8url_impl12adjust_rightEiim(ptr noundef nonnull align 8 dereferenceable(171) %0, i32 noundef %1, i32 noundef %2, i64 noundef %3) #1 align 2 {
  %5 = alloca ptr, align 8
  %6 = alloca i32, align 4
  %7 = alloca i32, align 4
  %8 = alloca i64, align 8
  %9 = alloca i32, align 4
  store ptr %0, ptr %5, align 8, !tbaa !3
  store i32 %1, ptr %6, align 4, !tbaa !16
  store i32 %2, ptr %7, align 4, !tbaa !16
  store i64 %3, ptr %8, align 8, !tbaa !8
  %10 = load ptr, ptr %5, align 8
  call void @llvm.lifetime.start.p0(i64 4, ptr %9) #5
  %11 = load i32, ptr %6, align 4, !tbaa !16
  store i32 %11, ptr %9, align 4, !tbaa !16
  br label %12

12:                                               ; preds = %25, %4
  %13 = load i32, ptr %9, align 4, !tbaa !16
  %14 = load i32, ptr %7, align 4, !tbaa !16
  %15 = icmp sle i32 %13, %14
  br i1 %15, label %17, label %16

16:                                               ; preds = %12
  call void @llvm.lifetime.end.p0(i64 4, ptr %9) #5
  br label %28

17:                                               ; preds = %12
  %18 = load i64, ptr %8, align 8, !tbaa !8
  %19 = getelementptr inbounds nuw %"struct.boost::urls::detail::url_impl", ptr %10, i32 0, i32 1
  %20 = load i32, ptr %9, align 4, !tbaa !16
  %21 = sext i32 %20 to i64
  %22 = getelementptr inbounds [8 x i64], ptr %19, i64 0, i64 %21
  %23 = load i64, ptr %22, align 8, !tbaa !8
  %24 = add i64 %23, %18
  store i64 %24, ptr %22, align 8, !tbaa !8
  br label %25

25:                                               ; preds = %17
  %26 = load i32, ptr %9, align 4, !tbaa !16
  %27 = add nsw i32 %26, 1
  store i32 %27, ptr %9, align 4, !tbaa !16
  br label %12, !llvm.loop !39

28:                                               ; preds = %16
  ret void
}