; Function Attrs: mustprogress nofree norecurse nosync nounwind memory(argmem: readwrite) uwtable
define void @_ZN5boost4urls6detail8url_impl12adjust_rightEiim(ptr nocapture noundef nonnull align 8 dereferenceable(171) %0, i32 noundef %1, i32 noundef %2, i64 noundef %3) local_unnamed_addr #3 align 2 {
  %.not6 = icmp sgt i32 %1, %2
  br i1 %.not6, label %._crit_edge, label %.lr.ph

.lr.ph:                                           ; preds = %4
  %5 = getelementptr inbounds nuw i8, ptr %0, i64 8
  %6 = sext i32 %1 to i64
  %7 = add i32 %2, 1
  br label %8

._crit_edge:                                      ; preds = %8, %4
  ret void

8:                                                ; preds = %.lr.ph, %8
  %indvars.iv = phi i64 [ %6, %.lr.ph ], [ %indvars.iv.next, %8 ]
  %9 = getelementptr inbounds [8 x i64], ptr %5, i64 0, i64 %indvars.iv
  %10 = load i64, ptr %9, align 8, !tbaa !13
  %11 = add i64 %10, %3
  store i64 %11, ptr %9, align 8, !tbaa !13
  %indvars.iv.next = add nsw i64 %indvars.iv, 1
  %lftr.wideiv = trunc i64 %indvars.iv.next to i32
  %exitcond.not = icmp eq i32 %7, %lftr.wideiv
  br i1 %exitcond.not, label %._crit_edge, label %8, !llvm.loop !40
}